; Function Attrs: mustprogress nofree norecurse nosync nounwind willreturn memory(argmem: read) uwtable
define noundef i32 @_ZN8DataHash8GetCRC32Ev(ptr nocapture noundef nonnull readonly align 8 dereferenceable(16) %0) local_unnamed_addr #10 align 2 {
  %2 = load i32, ptr %0, align 8
  %3 = icmp eq i32 %2, 2
  %4 = getelementptr inbounds i8, ptr %0, i64 4
  %5 = load i32, ptr %4, align 4
  %6 = xor i32 %5, -1
  %7 = select i1 %3, i32 %6, i32 0
  ret i32 %7
}